; Function Attrs: mustprogress uwtable
define void @_ZN6casadi2MX6set_nzERKS0_bRKNS_5SliceE(ptr noundef nonnull align 8 dereferenceable(8) %0, ptr noundef nonnull align 8 dereferenceable(8) %1, i1 noundef zeroext %2, ptr noundef nonnull align 8 dereferenceable(24) %3) local_unnamed_addr #3 align 2 personality ptr @__gxx_personality_v0 {
  %5 = alloca %"class.casadi::Matrix.38", align 8
  %6 = alloca %"class.std::vector", align 8
  %7 = tail call noundef ptr @_ZNK6casadi12SharedObjectptEv(ptr noundef nonnull align 8 dereferenceable(8) %0)
  %8 = getelementptr inbounds i8, ptr %7, i64 56
  %9 = tail call noundef i64 @_ZNK6casadi8Sparsity3nnzEv(ptr noundef nonnull align 8 dereferenceable(8) %8)
  call void @_ZNK6casadi5Slice3allExb(ptr dead_on_unwind nonnull writable sret(%"class.std::vector") align 8 %6, ptr noundef nonnull align 8 dereferenceable(24) %3, i64 noundef %9, i1 noundef zeroext %2)
  invoke void @_ZN6casadi6MatrixIxEC1ERKSt6vectorIxSaIxEE(ptr noundef nonnull align 8 dereferenceable(40) %5, ptr noundef nonnull align 8 dereferenceable(24) %6)
          to label %10 unwind label %18

10:                                               ; preds = %4
  invoke void @_ZN6casadi2MX6set_nzERKS0_bRKNS_6MatrixIxEE(ptr noundef nonnull align 8 dereferenceable(8) %0, ptr noundef nonnull align 8 dereferenceable(8) %1, i1 noundef zeroext %2, ptr noundef nonnull align 8 dereferenceable(40) %5)
          to label %11 unwind label %20

11:                                               ; preds = %10
  %12 = getelementptr inbounds i8, ptr %5, i64 16
  %13 = load ptr, ptr %12, align 8
  %.not.i.i.i.i = icmp eq ptr %13, null
  br i1 %.not.i.i.i.i, label %_ZN6casadi6MatrixIxED2Ev.exit, label %14

14:                                               ; preds = %11
  call void @_ZdlPv(ptr noundef nonnull %13) #30
  br label %_ZN6casadi6MatrixIxED2Ev.exit

_ZN6casadi6MatrixIxED2Ev.exit:                    ; preds = %11, %14
  %15 = getelementptr inbounds i8, ptr %5, i64 8
  call void @_ZN6casadi12SharedObjectD2Ev(ptr noundef nonnull align 8 dereferenceable(8) %15) #27
  %16 = load ptr, ptr %6, align 8
  %.not.i.i.i = icmp eq ptr %16, null
  br i1 %.not.i.i.i, label %_ZNSt6vectorIxSaIxEED2Ev.exit, label %17

17:                                               ; preds = %_ZN6casadi6MatrixIxED2Ev.exit
  call void @_ZdlPv(ptr noundef nonnull %16) #30
  br label %_ZNSt6vectorIxSaIxEED2Ev.exit

_ZNSt6vectorIxSaIxEED2Ev.exit:                    ; preds = %_ZN6casadi6MatrixIxED2Ev.exit, %17
  ret void

18:                                               ; preds = %4
  %19 = landingpad { ptr, i32 }
          cleanup
  br label %22

20:                                               ; preds = %10
  %21 = landingpad { ptr, i32 }
          cleanup
  call void @_ZN6casadi6MatrixIxED2Ev(ptr noundef nonnull align 8 dereferenceable(40) %5) #27
  br label %22

22:                                               ; preds = %20, %18
  %.pn = phi { ptr, i32 } [ %21, %20 ], [ %19, %18 ]
  %23 = load ptr, ptr %6, align 8
  %.not.i.i.i8 = icmp eq ptr %23, null
  br i1 %.not.i.i.i8, label %_ZNSt6vectorIxSaIxEED2Ev.exit9, label %24

24:                                               ; preds = %22
  call void @_ZdlPv(ptr noundef nonnull %23) #30
  br label %_ZNSt6vectorIxSaIxEED2Ev.exit9

_ZNSt6vectorIxSaIxEED2Ev.exit9:                   ; preds = %22, %24
  resume { ptr, i32 } %.pn
}